target datalayout = "e-m:e-p270:32:32-p271:32:32-p272:64:64-i64:64-i128:128-f80:128-n8:16:32:64-S128"
target triple = "x86_64-pc-linux-gnu"

; Function Attrs: nounwind uwtable
define hidden i32 @mbedtls_ssl_tls_prf(i32 noundef %0, ptr noundef %1, i64 noundef %2, ptr noundef %3, ptr noundef %4, i64 noundef %5, ptr noundef %6, i64 noundef %7) #0 {
  %9 = alloca i32, align 4
  %10 = alloca i32, align 4
  %11 = alloca ptr, align 8
  %12 = alloca i64, align 8
  %13 = alloca ptr, align 8
  %14 = alloca ptr, align 8
  %15 = alloca i64, align 8
  %16 = alloca ptr, align 8
  %17 = alloca i64, align 8
  %18 = alloca ptr, align 8
  %19 = alloca i32, align 4
  store i32 %0, ptr %10, align 4, !tbaa !10
  store ptr %1, ptr %11, align 8, !tbaa !29
  store i64 %2, ptr %12, align 8, !tbaa !8
  store ptr %3, ptr %13, align 8, !tbaa !29
  store ptr %4, ptr %14, align 8, !tbaa !29
  store i64 %5, ptr %15, align 8, !tbaa !8
  store ptr %6, ptr %16, align 8, !tbaa !29
  store i64 %7, ptr %17, align 8, !tbaa !8
  call void @llvm.lifetime.start.p0(i64 8, ptr %18) #11
  store ptr null, ptr %18, align 8, !tbaa !70
  %20 = load i32, ptr %10, align 4, !tbaa !10
  switch i32 %20, label %23 [
    i32 1, label %21
    i32 2, label %22
  ]

21:                                               ; preds = %8
  store ptr @tls_prf_sha384, ptr %18, align 8, !tbaa !70
  br label %24

22:                                               ; preds = %8
  store ptr @tls_prf_sha256, ptr %18, align 8, !tbaa !70
  br label %24

23:                                               ; preds = %8
  store i32 -28800, ptr %9, align 4
  store i32 1, ptr %19, align 4
  br label %34

24:                                               ; preds = %22, %21
  %25 = load ptr, ptr %18, align 8, !tbaa !70
  %26 = load ptr, ptr %11, align 8, !tbaa !29
  %27 = load i64, ptr %12, align 8, !tbaa !8
  %28 = load ptr, ptr %13, align 8, !tbaa !29
  %29 = load ptr, ptr %14, align 8, !tbaa !29
  %30 = load i64, ptr %15, align 8, !tbaa !8
  %31 = load ptr, ptr %16, align 8, !tbaa !29
  %32 = load i64, ptr %17, align 8, !tbaa !8
  %33 = call i32 %25(ptr noundef %26, i64 noundef %27, ptr noundef %28, ptr noundef %29, i64 noundef %30, ptr noundef %31, i64 noundef %32)
  store i32 %33, ptr %9, align 4
  store i32 1, ptr %19, align 4
  br label %34

34:                                               ; preds = %24, %23
  call void @llvm.lifetime.end.p0(i64 8, ptr %18) #11
  %35 = load i32, ptr %9, align 4
  ret i32 %35
}