; Function Attrs: nounwind uwtable
define hidden i32 @mbedtls_ssl_tls_prf(i32 noundef %0, ptr noundef %1, i64 noundef %2, ptr noundef %3, ptr noundef %4, i64 noundef %5, ptr noundef %6, i64 noundef %7) local_unnamed_addr #1 {
  switch i32 %0, label %12 [
    i32 1, label %10
    i32 2, label %9
  ]

9:                                                ; preds = %8
  br label %10

10:                                               ; preds = %8, %9
  %.0 = phi ptr [ @tls_prf_sha256, %9 ], [ @tls_prf_sha384, %8 ]
  %11 = tail call i32 %.0(ptr noundef %1, i64 noundef %2, ptr noundef %3, ptr noundef %4, i64 noundef %5, ptr noundef %6, i64 noundef %7) #26, !callees !63
  br label %12

12:                                               ; preds = %8, %10
  %.09 = phi i32 [ %11, %10 ], [ -28800, %8 ]
  ret i32 %.09
}